; Function Attrs: mustprogress nounwind uwtable
define internal fastcc noundef ptr @_ZN12_GLOBAL__N_117ScalarExprEmitter20VisitFloatingLiteralEPKN5clang15FloatingLiteralE(ptr %.24.val, ptr noundef %0) unnamed_addr #0 align 2 {
  %2 = alloca %"class.llvm::APFloat", align 8
  %3 = getelementptr inbounds nuw i8, ptr %0, i64 16
  %4 = load i24, ptr %0, align 8, !noalias !195
  %5 = lshr i24 %4, 18
  %6 = and i24 %5, 31
  %7 = zext nneg i24 %6 to i32
  %8 = tail call noundef nonnull align 1 ptr @_ZN4llvm11APFloatBase15EnumToSemanticsENS0_9SemanticsE(i32 noundef %7) #19, !noalias !195
  call void @_ZNK5clang14APFloatStorage8getValueERKN4llvm12fltSemanticsE(ptr dead_on_unwind nonnull writable sret(%"class.llvm::APFloat") align 8 %2, ptr noundef nonnull align 8 dereferenceable(12) %3, ptr noundef nonnull align 1 %8)
  %9 = call noundef ptr @_ZN4llvm10ConstantFP3getERNS_11LLVMContextERKNS_7APFloatE(ptr noundef nonnull align 8 dereferenceable(8) %.24.val, ptr noundef nonnull align 8 dereferenceable(32) %2) #19
  %10 = getelementptr inbounds nuw i8, ptr %2, i64 8
  %11 = load ptr, ptr %10, align 8
  %12 = tail call noundef nonnull align 1 ptr @_ZN4llvm11APFloatBase15PPCDoubleDoubleEv() #21
  %.not.i.i = icmp eq ptr %11, %12
  br i1 %.not.i.i, label %14, label %13

13:                                               ; preds = %1
  call void @_ZN4llvm6detail9IEEEFloatD1Ev(ptr noundef nonnull align 8 dereferenceable(24) %10) #19
  br label %_ZN4llvm7APFloatD2Ev.exit

14:                                               ; preds = %1
  %15 = getelementptr inbounds nuw i8, ptr %2, i64 16
  %16 = load ptr, ptr %15, align 8
  %.not.i.i.i.i = icmp eq ptr %16, null
  br i1 %.not.i.i.i.i, label %_ZN4llvm7APFloatD2Ev.exit, label %17

17:                                               ; preds = %14
  call void @_ZNKSt14default_deleteIA_N4llvm7APFloatEEclIS1_EENSt9enable_ifIXsr14is_convertibleIPA_T_PS2_EE5valueEvE4typeEPS6_(ptr noundef nonnull align 1 dereferenceable(1) %15, ptr noundef nonnull %16)
  br label %_ZN4llvm7APFloatD2Ev.exit

_ZN4llvm7APFloatD2Ev.exit:                        ; preds = %14, %17, %13
  ret ptr %9
}